target datalayout = "e-m:e-p270:32:32-p271:32:32-p272:64:64-i64:64-i128:128-f80:128-n8:16:32:64-S128"
target triple = "x86_64-pc-linux-gnu"

%"class.gmx::SelectionTreeElement" = type { i32, %struct.gmx_ana_selvalue_t, ptr, i32, %union.anon.30, ptr, ptr, %"class.std::shared_ptr", %"class.std::shared_ptr", %"class.std::__cxx11::basic_string", %"struct.gmx::SelectionLocation" }
%struct.gmx_ana_selvalue_t = type { i32, i32, %union.anon.29, i32 }
%union.anon.29 = type { ptr }
%union.anon.30 = type { %struct.anon }
%struct.anon = type { ptr, ptr, ptr, ptr }
%"class.std::shared_ptr" = type { %"class.std::__shared_ptr" }
%"class.std::__shared_ptr" = type { ptr, %"class.std::__shared_count" }
%"class.std::__shared_count" = type { ptr }
%"class.std::__cxx11::basic_string" = type { %"struct.std::__cxx11::basic_string<char>::_Alloc_hider", i64, %union.anon }
%"struct.std::__cxx11::basic_string<char>::_Alloc_hider" = type { ptr }
%union.anon = type { i64, [8 x i8] }
%"struct.gmx::SelectionLocation" = type { i32, i32 }
%struct.gmx_ana_index_t = type { i32, ptr, i32 }
%"class.(anonymous namespace)::MempoolSelelemReserver" = type { %"class.std::shared_ptr" }

; Function Attrs: mustprogress nounwind uwtable
define linkonce_odr void @_ZNSt14__shared_countILN9__gnu_cxx12_Lock_policyE2EEC2Ev(ptr noundef nonnull align 8 dereferenceable(8) %0) unnamed_addr #0 comdat align 2 {
  %2 = alloca ptr, align 8
  store ptr %0, ptr %2, align 8
  %3 = load ptr, ptr %2, align 8
  %4 = getelementptr inbounds %"class.std::__shared_count", ptr %3, i32 0, i32 0
  store ptr null, ptr %4, align 8
  ret void
}

; Function Attrs: mustprogress nounwind uwtable
define linkonce_odr void @_ZNSt12__shared_ptrIN3gmx20SelectionTreeElementELN9__gnu_cxx12_Lock_policyE2EEC2Ev(ptr noundef nonnull align 8 dereferenceable(16) %0) unnamed_addr #0 comdat align 2 {
  %2 = alloca ptr, align 8
  store ptr %0, ptr %2, align 8
  %3 = load ptr, ptr %2, align 8
  %4 = getelementptr inbounds %"class.std::__shared_ptr", ptr %3, i32 0, i32 0
  store ptr null, ptr %4, align 8
  %5 = getelementptr inbounds %"class.std::__shared_ptr", ptr %3, i32 0, i32 1
  call void @_ZNSt14__shared_countILN9__gnu_cxx12_Lock_policyE2EEC2Ev(ptr noundef nonnull align 8 dereferenceable(8) %5) #9
  ret void
}

; Function Attrs: mustprogress nounwind uwtable
define linkonce_odr noundef ptr @_ZNKSt12__shared_ptrIN3gmx20SelectionTreeElementELN9__gnu_cxx12_Lock_policyE2EE3getEv(ptr noundef nonnull align 8 dereferenceable(16) %0) #0 comdat align 2 {
  %2 = alloca ptr, align 8
  store ptr %0, ptr %2, align 8
  %3 = load ptr, ptr %2, align 8
  %4 = getelementptr inbounds %"class.std::__shared_ptr", ptr %3, i32 0, i32 0
  %5 = load ptr, ptr %4, align 8
  ret ptr %5
}

; Function Attrs: mustprogress nounwind uwtable
define linkonce_odr void @_ZNSt10shared_ptrIN3gmx20SelectionTreeElementEEC2Ev(ptr noundef nonnull align 8 dereferenceable(16) %0) unnamed_addr #0 comdat align 2 {
  %2 = alloca ptr, align 8
  store ptr %0, ptr %2, align 8
  %3 = load ptr, ptr %2, align 8
  call void @_ZNSt12__shared_ptrIN3gmx20SelectionTreeElementELN9__gnu_cxx12_Lock_policyE2EEC2Ev(ptr noundef nonnull align 8 dereferenceable(16) %3) #9
  ret void
}

; Function Attrs: mustprogress nounwind uwtable
define linkonce_odr noundef ptr @_ZNKSt19__shared_ptr_accessIN3gmx20SelectionTreeElementELN9__gnu_cxx12_Lock_policyE2ELb0ELb0EE6_M_getEv(ptr noundef nonnull align 1 dereferenceable(1) %0) #0 comdat align 2 {
  %2 = alloca ptr, align 8
  store ptr %0, ptr %2, align 8
  %3 = load ptr, ptr %2, align 8
  %4 = call noundef ptr @_ZNKSt12__shared_ptrIN3gmx20SelectionTreeElementELN9__gnu_cxx12_Lock_policyE2EE3getEv(ptr noundef nonnull align 8 dereferenceable(16) %3) #9
  ret ptr %4
}

; Function Attrs: mustprogress uwtable
define internal void @_ZN12_GLOBAL__N_122MempoolSelelemReserverC2ERKSt10shared_ptrIN3gmx20SelectionTreeElementEEi(ptr noundef nonnull align 8 dereferenceable(16) %0, ptr noundef nonnull align 8 dereferenceable(16) %1, i32 noundef %2) unnamed_addr #2 align 2 personality ptr @__gxx_personality_v0 {
  %4 = alloca ptr, align 8
  %5 = alloca ptr, align 8
  %6 = alloca i32, align 4
  %7 = alloca ptr, align 8
  %8 = alloca i32, align 4
  store ptr %0, ptr %4, align 8
  store ptr %1, ptr %5, align 8
  store i32 %2, ptr %6, align 4
  %9 = load ptr, ptr %4, align 8
  %10 = getelementptr inbounds %"class.(anonymous namespace)::MempoolSelelemReserver", ptr %9, i32 0, i32 0
  call void @_ZNSt10shared_ptrIN3gmx20SelectionTreeElementEEC2Ev(ptr noundef nonnull align 8 dereferenceable(16) %10) #9
  %11 = load ptr, ptr %5, align 8
  %12 = load i32, ptr %6, align 4
  invoke void @_ZN12_GLOBAL__N_122MempoolSelelemReserver7reserveERKSt10shared_ptrIN3gmx20SelectionTreeElementEEi(ptr noundef nonnull align 8 dereferenceable(16) %9, ptr noundef nonnull align 8 dereferenceable(16) %11, i32 noundef %12)
          to label %13 unwind label %14

13:                                               ; preds = %3
  ret void

14:                                               ; preds = %3
  %15 = landingpad { ptr, i32 }
          cleanup
  %16 = extractvalue { ptr, i32 } %15, 0
  store ptr %16, ptr %7, align 8
  %17 = extractvalue { ptr, i32 } %15, 1
  store i32 %17, ptr %8, align 4
  call void @_ZNSt10shared_ptrIN3gmx20SelectionTreeElementEED2Ev(ptr noundef nonnull align 8 dereferenceable(16) %10) #9
  br label %18

18:                                               ; preds = %14
  %19 = load ptr, ptr %7, align 8
  %20 = load i32, ptr %8, align 4
  %21 = insertvalue { ptr, i32 } poison, ptr %19, 0
  %22 = insertvalue { ptr, i32 } %21, i32 %20, 1
  resume { ptr, i32 } %22
}

; Function Attrs: mustprogress nounwind uwtable
define linkonce_odr noundef ptr @_ZNKSt19__shared_ptr_accessIN3gmx20SelectionTreeElementELN9__gnu_cxx12_Lock_policyE2ELb0ELb0EEptEv(ptr noundef nonnull align 1 dereferenceable(1) %0) #0 comdat align 2 {
  %2 = alloca ptr, align 8
  store ptr %0, ptr %2, align 8
  %3 = load ptr, ptr %2, align 8
  %4 = call noundef ptr @_ZNKSt19__shared_ptr_accessIN3gmx20SelectionTreeElementELN9__gnu_cxx12_Lock_policyE2ELb0ELb0EE6_M_getEv(ptr noundef nonnull align 1 dereferenceable(1) %3) #9
  ret ptr %4
}

; Function Attrs: mustprogress uwtable
define void @_Z21_gmx_sel_evaluate_notP18gmx_sel_evaluate_tRKSt10shared_ptrIN3gmx20SelectionTreeElementEEP15gmx_ana_index_t(ptr noundef %0, ptr noundef nonnull align 8 dereferenceable(16) %1, ptr noundef %2) #2 personality ptr @__gxx_personality_v0 {
  %4 = alloca ptr, align 8
  %5 = alloca ptr, align 8
  %6 = alloca ptr, align 8
  %7 = alloca %"class.(anonymous namespace)::MempoolSelelemReserver", align 8
  %8 = alloca ptr, align 8
  %9 = alloca i32, align 4
  store ptr %0, ptr %4, align 8
  store ptr %1, ptr %5, align 8
  store ptr %2, ptr %6, align 8
  %10 = load ptr, ptr %5, align 8
  %11 = call noundef ptr @_ZNKSt19__shared_ptr_accessIN3gmx20SelectionTreeElementELN9__gnu_cxx12_Lock_policyE2ELb0ELb0EEptEv(ptr noundef nonnull align 1 dereferenceable(1) %10) #9
  %12 = getelementptr inbounds %"class.gmx::SelectionTreeElement", ptr %11, i32 0, i32 7
  %13 = load ptr, ptr %6, align 8
  %14 = getelementptr inbounds %struct.gmx_ana_index_t, ptr %13, i32 0, i32 0
  %15 = load i32, ptr %14, align 8
  call void @_ZN12_GLOBAL__N_122MempoolSelelemReserverC2ERKSt10shared_ptrIN3gmx20SelectionTreeElementEEi(ptr noundef nonnull align 8 dereferenceable(16) %7, ptr noundef nonnull align 8 dereferenceable(16) %12, i32 noundef %15)
  %16 = load ptr, ptr %5, align 8
  %17 = call noundef ptr @_ZNKSt19__shared_ptr_accessIN3gmx20SelectionTreeElementELN9__gnu_cxx12_Lock_policyE2ELb0ELb0EEptEv(ptr noundef nonnull align 1 dereferenceable(1) %16) #9
  %18 = getelementptr inbounds %"class.gmx::SelectionTreeElement", ptr %17, i32 0, i32 7
  %19 = call noundef ptr @_ZNKSt19__shared_ptr_accessIN3gmx20SelectionTreeElementELN9__gnu_cxx12_Lock_policyE2ELb0ELb0EEptEv(ptr noundef nonnull align 1 dereferenceable(1) %18) #9
  %20 = getelementptr inbounds %"class.gmx::SelectionTreeElement", ptr %19, i32 0, i32 2
  %21 = load ptr, ptr %20, align 8
  %22 = load ptr, ptr %4, align 8
  %23 = load ptr, ptr %5, align 8
  %24 = call noundef ptr @_ZNKSt19__shared_ptr_accessIN3gmx20SelectionTreeElementELN9__gnu_cxx12_Lock_policyE2ELb0ELb0EEptEv(ptr noundef nonnull align 1 dereferenceable(1) %23) #9
  %25 = getelementptr inbounds %"class.gmx::SelectionTreeElement", ptr %24, i32 0, i32 7
  %26 = load ptr, ptr %6, align 8
  invoke void %21(ptr noundef %22, ptr noundef nonnull align 8 dereferenceable(16) %25, ptr noundef %26)
          to label %27 unwind label %42

27:                                               ; preds = %3
  %28 = load ptr, ptr %5, align 8
  %29 = call noundef ptr @_ZNKSt19__shared_ptr_accessIN3gmx20SelectionTreeElementELN9__gnu_cxx12_Lock_policyE2ELb0ELb0EEptEv(ptr noundef nonnull align 1 dereferenceable(1) %28) #9
  %30 = getelementptr inbounds %"class.gmx::SelectionTreeElement", ptr %29, i32 0, i32 1
  %31 = getelementptr inbounds %struct.gmx_ana_selvalue_t, ptr %30, i32 0, i32 2
  %32 = load ptr, ptr %31, align 8
  %33 = load ptr, ptr %6, align 8
  %34 = load ptr, ptr %5, align 8
  %35 = call noundef ptr @_ZNKSt19__shared_ptr_accessIN3gmx20SelectionTreeElementELN9__gnu_cxx12_Lock_policyE2ELb0ELb0EEptEv(ptr noundef nonnull align 1 dereferenceable(1) %34) #9
  %36 = getelementptr inbounds %"class.gmx::SelectionTreeElement", ptr %35, i32 0, i32 7
  %37 = call noundef ptr @_ZNKSt19__shared_ptr_accessIN3gmx20SelectionTreeElementELN9__gnu_cxx12_Lock_policyE2ELb0ELb0EEptEv(ptr noundef nonnull align 1 dereferenceable(1) %36) #9
  %38 = getelementptr inbounds %"class.gmx::SelectionTreeElement", ptr %37, i32 0, i32 1
  %39 = getelementptr inbounds %struct.gmx_ana_selvalue_t, ptr %38, i32 0, i32 2
  %40 = load ptr, ptr %39, align 8
  invoke void @_Z24gmx_ana_index_differenceP15gmx_ana_index_tS0_S0_(ptr noundef %32, ptr noundef %33, ptr noundef %40)
          to label %41 unwind label %42

41:                                               ; preds = %27
  call void @_ZN12_GLOBAL__N_122MempoolSelelemReserverD2Ev(ptr noundef nonnull align 8 dereferenceable(16) %7) #9
  ret void

42:                                               ; preds = %27, %3
  %43 = landingpad { ptr, i32 }
          cleanup
  %44 = extractvalue { ptr, i32 } %43, 0
  store ptr %44, ptr %8, align 8
  %45 = extractvalue { ptr, i32 } %43, 1
  store i32 %45, ptr %9, align 4
  call void @_ZN12_GLOBAL__N_122MempoolSelelemReserverD2Ev(ptr noundef nonnull align 8 dereferenceable(16) %7) #9
  br label %46

46:                                               ; preds = %42
  %47 = load ptr, ptr %8, align 8
  %48 = load i32, ptr %9, align 4
  %49 = insertvalue { ptr, i32 } poison, ptr %47, 0
  %50 = insertvalue { ptr, i32 } %49, i32 %48, 1
  resume { ptr, i32 } %50
}