; Function Attrs: mustprogress uwtable
define void @_Z21_gmx_sel_evaluate_notP18gmx_sel_evaluate_tRKSt10shared_ptrIN3gmx20SelectionTreeElementEEP15gmx_ana_index_t(ptr noundef %0, ptr nocapture noundef nonnull readonly align 8 dereferenceable(16) %1, ptr noundef %2) #2 personality ptr @__gxx_personality_v0 {
  %4 = alloca %"class.(anonymous namespace)::MempoolSelelemReserver", align 8
  %5 = load ptr, ptr %1, align 8
  %6 = getelementptr inbounds i8, ptr %5, i64 96
  %7 = load i32, ptr %2, align 8
  call void @llvm.memset.p0.i64(ptr noundef nonnull align 8 dereferenceable(16) %4, i8 0, i64 16, i1 false)
  invoke fastcc void @_ZN12_GLOBAL__N_122MempoolSelelemReserver7reserveERKSt10shared_ptrIN3gmx20SelectionTreeElementEEi(ptr noundef nonnull align 8 dereferenceable(16) %4, ptr noundef nonnull align 8 dereferenceable(16) %6, i32 noundef %7)
          to label %_ZN12_GLOBAL__N_122MempoolSelelemReserverC2ERKSt10shared_ptrIN3gmx20SelectionTreeElementEEi.exit unwind label %8

common.resume:                                    ; preds = %66, %8
  %common.resume.op = phi { ptr, i32 } [ %9, %8 ], [ %67, %66 ]
  resume { ptr, i32 } %common.resume.op

8:                                                ; preds = %3
  %9 = landingpad { ptr, i32 }
          cleanup
  call void @_ZNSt10shared_ptrIN3gmx20SelectionTreeElementEED2Ev(ptr noundef nonnull align 8 dereferenceable(16) %4) #18
  br label %common.resume

_ZN12_GLOBAL__N_122MempoolSelelemReserverC2ERKSt10shared_ptrIN3gmx20SelectionTreeElementEEi.exit: ; preds = %3
  %10 = load ptr, ptr %1, align 8
  %11 = getelementptr inbounds i8, ptr %10, i64 96
  %12 = load ptr, ptr %11, align 8
  %13 = getelementptr inbounds i8, ptr %12, i64 32
  %14 = load ptr, ptr %13, align 8
  invoke void %14(ptr noundef %0, ptr noundef nonnull align 8 dereferenceable(16) %11, ptr noundef nonnull %2)
          to label %15 unwind label %66

15:                                               ; preds = %_ZN12_GLOBAL__N_122MempoolSelelemReserverC2ERKSt10shared_ptrIN3gmx20SelectionTreeElementEEi.exit
  %16 = load ptr, ptr %1, align 8
  %17 = getelementptr inbounds i8, ptr %16, i64 16
  %18 = load ptr, ptr %17, align 8
  %19 = getelementptr inbounds i8, ptr %16, i64 96
  %20 = load ptr, ptr %19, align 8
  %21 = getelementptr inbounds i8, ptr %20, i64 16
  %22 = load ptr, ptr %21, align 8
  invoke void @_Z24gmx_ana_index_differenceP15gmx_ana_index_tS0_S0_(ptr noundef %18, ptr noundef nonnull %2, ptr noundef %22)
          to label %23 unwind label %66

23:                                               ; preds = %15
  %24 = load ptr, ptr %4, align 8
  %.not.i = icmp eq ptr %24, null
  br i1 %.not.i, label %26, label %25

25:                                               ; preds = %23
  invoke void @_ZN3gmx20SelectionTreeElement14mempoolReleaseEv(ptr noundef nonnull align 8 dereferenceable(168) %24)
          to label %26 unwind label %63

26:                                               ; preds = %25, %23
  %27 = getelementptr inbounds i8, ptr %4, i64 8
  %28 = load ptr, ptr %27, align 8
  %.not.i.i.i.i = icmp eq ptr %28, null
  br i1 %.not.i.i.i.i, label %_ZN12_GLOBAL__N_122MempoolSelelemReserverD2Ev.exit, label %29

29:                                               ; preds = %26
  %30 = getelementptr inbounds i8, ptr %28, i64 8
  %31 = load atomic i64, ptr %30 acquire, align 8
  %32 = icmp eq i64 %31, 4294967297
  %33 = trunc i64 %31 to i32
  br i1 %32, label %34, label %39

34:                                               ; preds = %29
  store i32 0, ptr %30, align 8
  %35 = getelementptr inbounds i8, ptr %28, i64 12
  store i32 0, ptr %35, align 4
  %36 = load ptr, ptr %28, align 8
  %37 = getelementptr inbounds i8, ptr %36, i64 16
  %38 = load ptr, ptr %37, align 8
  tail call void %38(ptr noundef nonnull align 8 dereferenceable(16) %28) #18
  br label %_ZNSt16_Sp_counted_baseILN9__gnu_cxx12_Lock_policyE2EE24_M_release_last_use_coldEv.exit.sink.split.i.i.i.i.i

39:                                               ; preds = %29
  %40 = load i8, ptr @__libc_single_threaded, align 1
  %.not.i.i.i.i.i = icmp eq i8 %40, 0
  br i1 %.not.i.i.i.i.i, label %43, label %41

41:                                               ; preds = %39
  %42 = add nsw i32 %33, -1
  store i32 %42, ptr %30, align 4
  br label %45

43:                                               ; preds = %39
  %44 = atomicrmw volatile add ptr %30, i32 -1 acq_rel, align 4
  br label %45

45:                                               ; preds = %43, %41
  %.0.i.i.i.i.i = phi i32 [ %33, %41 ], [ %44, %43 ]
  %46 = icmp eq i32 %.0.i.i.i.i.i, 1
  br i1 %46, label %47, label %_ZN12_GLOBAL__N_122MempoolSelelemReserverD2Ev.exit

47:                                               ; preds = %45
  %48 = load ptr, ptr %28, align 8
  %49 = getelementptr inbounds i8, ptr %48, i64 16
  %50 = load ptr, ptr %49, align 8
  tail call void %50(ptr noundef nonnull align 8 dereferenceable(16) %28) #18
  %51 = getelementptr inbounds i8, ptr %28, i64 12
  %52 = load i8, ptr @__libc_single_threaded, align 1
  %.not.i.i.i.i.i.i.i = icmp eq i8 %52, 0
  br i1 %.not.i.i.i.i.i.i.i, label %56, label %53

53:                                               ; preds = %47
  %54 = load i32, ptr %51, align 4
  %55 = add nsw i32 %54, -1
  store i32 %55, ptr %51, align 4
  br label %58

56:                                               ; preds = %47
  %57 = atomicrmw volatile add ptr %51, i32 -1 acq_rel, align 4
  br label %58

58:                                               ; preds = %56, %53
  %.0.i.i.i.i.i.i.i = phi i32 [ %54, %53 ], [ %57, %56 ]
  %59 = icmp eq i32 %.0.i.i.i.i.i.i.i, 1
  br i1 %59, label %_ZNSt16_Sp_counted_baseILN9__gnu_cxx12_Lock_policyE2EE24_M_release_last_use_coldEv.exit.sink.split.i.i.i.i.i, label %_ZN12_GLOBAL__N_122MempoolSelelemReserverD2Ev.exit

_ZNSt16_Sp_counted_baseILN9__gnu_cxx12_Lock_policyE2EE24_M_release_last_use_coldEv.exit.sink.split.i.i.i.i.i: ; preds = %58, %34
  %60 = load ptr, ptr %28, align 8
  %61 = getelementptr inbounds i8, ptr %60, i64 24
  %62 = load ptr, ptr %61, align 8
  tail call void %62(ptr noundef nonnull align 8 dereferenceable(16) %28) #18
  br label %_ZN12_GLOBAL__N_122MempoolSelelemReserverD2Ev.exit

63:                                               ; preds = %25
  %64 = landingpad { ptr, i32 }
          catch ptr null
  %65 = extractvalue { ptr, i32 } %64, 0
  tail call void @__clang_call_terminate(ptr %65) #19
  unreachable

_ZN12_GLOBAL__N_122MempoolSelelemReserverD2Ev.exit: ; preds = %26, %45, %58, %_ZNSt16_Sp_counted_baseILN9__gnu_cxx12_Lock_policyE2EE24_M_release_last_use_coldEv.exit.sink.split.i.i.i.i.i
  ret void

66:                                               ; preds = %15, %_ZN12_GLOBAL__N_122MempoolSelelemReserverC2ERKSt10shared_ptrIN3gmx20SelectionTreeElementEEi.exit
  %67 = landingpad { ptr, i32 }
          cleanup
  call fastcc void @_ZN12_GLOBAL__N_122MempoolSelelemReserverD2Ev(ptr noundef nonnull align 8 dereferenceable(16) %4) #18
  br label %common.resume
}